target datalayout = "e-m:e-p270:32:32-p271:32:32-p272:64:64-i64:64-i128:128-f80:128-n8:16:32:64-S128"
target triple = "x86_64-pc-linux-gnu"

%struct.htmlparserstate_s = type { ptr, ptr, %struct.textspans_t, %struct.htextspans_t, ptr, %struct.sfont_t, ptr }
%struct.textspans_t = type { ptr, i64, i64, i64 }
%struct.htextspans_t = type { ptr, i64, i64, i64 }
%struct.sfont_t = type { ptr, i64, i64, i64 }
%struct.boxf = type { %struct.pointf_s, %struct.pointf_s }
%struct.pointf_s = type { double, double }
%struct.textfont_t = type { ptr, ptr, ptr, double, i32 }
%struct.GVC_s = type { %struct.GVCOMMON_s, ptr, i8, ptr, i32, ptr, ptr, [5 x ptr], [5 x ptr], ptr, ptr, %struct.dtdisc_s_, ptr, %struct.gvplugin_active_textlayout_s, ptr, ptr, ptr, %struct.gvplugin_active_layout_s, ptr, ptr, ptr, %struct.pointf_s, %struct.pointf_s, %struct.pointf_s, %struct.point, %struct.boxf, i32, i8, i8, i8, ptr, ptr, ptr, ptr, i32, ptr, ptr, double, ptr, %struct.color_s, i32 }
%struct.GVCOMMON_s = type { ptr, ptr, i32, i8, i8, ptr, ptr, ptr, i32, ptr, i32 }
%struct.dtdisc_s_ = type { i32, i32, i32, ptr, ptr, ptr }
%struct.gvplugin_active_textlayout_s = type { ptr, i32, ptr }
%struct.gvplugin_active_layout_s = type { ptr, i32, ptr, ptr }
%struct.point = type { i32, i32 }
%struct.color_s = type { %union.anon.5, i32 }
%union.anon.5 = type { [4 x double] }
%struct.dt_s_ = type { ptr, ptr, %struct.Dtdata_t, ptr, i32, ptr, ptr, ptr }
%struct.Dtdata_t = type { i32, ptr, %union.anon.6, i32, i32, i32 }
%union.anon.6 = type { ptr }

@stderr = external global ptr, align 8
@.str.11 = private unnamed_addr constant [20 x i8] c"realloc failed: %s\0A\00", align 1

; Function Attrs: inlinehint nounwind uwtable
define internal i32 @sfont_try_append(ptr noundef %0, ptr noundef %1) #6 {
  %3 = alloca i32, align 4
  %4 = alloca ptr, align 8
  %5 = alloca ptr, align 8
  %6 = alloca i64, align 8
  %7 = alloca i32, align 4
  %8 = alloca ptr, align 8
  %9 = alloca i64, align 8
  %10 = alloca i64, align 8
  %11 = alloca i64, align 8
  store ptr %0, ptr %4, align 8, !tbaa !36
  store ptr %1, ptr %5, align 8, !tbaa !36
  %12 = load ptr, ptr %4, align 8, !tbaa !36
  %13 = getelementptr inbounds nuw %struct.sfont_t, ptr %12, i32 0, i32 2
  %14 = load i64, ptr %13, align 8, !tbaa !136
  %15 = load ptr, ptr %4, align 8, !tbaa !36
  %16 = getelementptr inbounds nuw %struct.sfont_t, ptr %15, i32 0, i32 3
  %17 = load i64, ptr %16, align 8, !tbaa !135
  %18 = icmp eq i64 %14, %17
  br i1 %18, label %19, label %113

19:                                               ; preds = %2
  call void @llvm.lifetime.start.p0(i64 8, ptr %6) #13
  %20 = load ptr, ptr %4, align 8, !tbaa !36
  %21 = getelementptr inbounds nuw %struct.sfont_t, ptr %20, i32 0, i32 3
  %22 = load i64, ptr %21, align 8, !tbaa !135
  %23 = icmp eq i64 %22, 0
  br i1 %23, label %24, label %25

24:                                               ; preds = %19
  br label %30

25:                                               ; preds = %19
  %26 = load ptr, ptr %4, align 8, !tbaa !36
  %27 = getelementptr inbounds nuw %struct.sfont_t, ptr %26, i32 0, i32 3
  %28 = load i64, ptr %27, align 8, !tbaa !135
  %29 = mul i64 %28, 2
  br label %30

30:                                               ; preds = %25, %24
  %31 = phi i64 [ 1, %24 ], [ %29, %25 ]
  store i64 %31, ptr %6, align 8, !tbaa !12
  %32 = load i64, ptr %6, align 8, !tbaa !12
  %33 = udiv i64 -1, %32
  %34 = icmp ult i64 %33, 8
  br i1 %34, label %35, label %36

35:                                               ; preds = %30
  store i32 34, ptr %3, align 4
  store i32 1, ptr %7, align 4
  br label %110

36:                                               ; preds = %30
  call void @llvm.lifetime.start.p0(i64 8, ptr %8) #13
  %37 = load ptr, ptr %4, align 8, !tbaa !36
  %38 = getelementptr inbounds nuw %struct.sfont_t, ptr %37, i32 0, i32 0
  %39 = load ptr, ptr %38, align 8, !tbaa !131
  %40 = load i64, ptr %6, align 8, !tbaa !12
  %41 = mul i64 %40, 8
  %42 = call ptr @realloc(ptr noundef %39, i64 noundef %41) #18
  store ptr %42, ptr %8, align 8, !tbaa !36
  %43 = load ptr, ptr %8, align 8, !tbaa !36
  %44 = icmp eq ptr %43, null
  br i1 %44, label %45, label %46

45:                                               ; preds = %36
  store i32 12, ptr %3, align 4
  store i32 1, ptr %7, align 4
  br label %109

46:                                               ; preds = %36
  %47 = load ptr, ptr %8, align 8, !tbaa !36
  %48 = load ptr, ptr %4, align 8, !tbaa !36
  %49 = getelementptr inbounds nuw %struct.sfont_t, ptr %48, i32 0, i32 3
  %50 = load i64, ptr %49, align 8, !tbaa !135
  %51 = getelementptr inbounds nuw ptr, ptr %47, i64 %50
  %52 = load i64, ptr %6, align 8, !tbaa !12
  %53 = load ptr, ptr %4, align 8, !tbaa !36
  %54 = getelementptr inbounds nuw %struct.sfont_t, ptr %53, i32 0, i32 3
  %55 = load i64, ptr %54, align 8, !tbaa !135
  %56 = sub i64 %52, %55
  %57 = mul i64 %56, 8
  call void @llvm.memset.p0.i64(ptr align 8 %51, i8 0, i64 %57, i1 false)
  br label %58

58:                                               ; preds = %46
  br label %59

59:                                               ; preds = %58
  br label %60

60:                                               ; preds = %59
  %61 = load ptr, ptr %4, align 8, !tbaa !36
  %62 = getelementptr inbounds nuw %struct.sfont_t, ptr %61, i32 0, i32 1
  %63 = load i64, ptr %62, align 8, !tbaa !134
  %64 = load ptr, ptr %4, align 8, !tbaa !36
  %65 = getelementptr inbounds nuw %struct.sfont_t, ptr %64, i32 0, i32 2
  %66 = load i64, ptr %65, align 8, !tbaa !136
  %67 = add i64 %63, %66
  %68 = load ptr, ptr %4, align 8, !tbaa !36
  %69 = getelementptr inbounds nuw %struct.sfont_t, ptr %68, i32 0, i32 3
  %70 = load i64, ptr %69, align 8, !tbaa !135
  %71 = icmp ugt i64 %67, %70
  br i1 %71, label %72, label %102

72:                                               ; preds = %60
  call void @llvm.lifetime.start.p0(i64 8, ptr %9) #13
  %73 = load ptr, ptr %4, align 8, !tbaa !36
  %74 = getelementptr inbounds nuw %struct.sfont_t, ptr %73, i32 0, i32 3
  %75 = load i64, ptr %74, align 8, !tbaa !135
  %76 = load ptr, ptr %4, align 8, !tbaa !36
  %77 = getelementptr inbounds nuw %struct.sfont_t, ptr %76, i32 0, i32 1
  %78 = load i64, ptr %77, align 8, !tbaa !134
  %79 = sub i64 %75, %78
  store i64 %79, ptr %9, align 8, !tbaa !12
  call void @llvm.lifetime.start.p0(i64 8, ptr %10) #13
  %80 = load i64, ptr %6, align 8, !tbaa !12
  %81 = load i64, ptr %9, align 8, !tbaa !12
  %82 = sub i64 %80, %81
  store i64 %82, ptr %10, align 8, !tbaa !12
  br label %83

83:                                               ; preds = %72
  br label %84

84:                                               ; preds = %83
  br label %85

85:                                               ; preds = %84
  %86 = load ptr, ptr %8, align 8, !tbaa !36
  %87 = load i64, ptr %10, align 8, !tbaa !12
  %88 = getelementptr inbounds nuw ptr, ptr %86, i64 %87
  %89 = load ptr, ptr %8, align 8, !tbaa !36
  %90 = load ptr, ptr %4, align 8, !tbaa !36
  %91 = getelementptr inbounds nuw %struct.sfont_t, ptr %90, i32 0, i32 1
  %92 = load i64, ptr %91, align 8, !tbaa !134
  %93 = getelementptr inbounds nuw ptr, ptr %89, i64 %92
  %94 = load i64, ptr %9, align 8, !tbaa !12
  %95 = mul i64 %94, 8
  call void @llvm.memmove.p0.p0.i64(ptr align 8 %88, ptr align 8 %93, i64 %95, i1 false)
  br label %96

96:                                               ; preds = %85
  br label %97

97:                                               ; preds = %96
  br label %98

98:                                               ; preds = %97
  %99 = load i64, ptr %10, align 8, !tbaa !12
  %100 = load ptr, ptr %4, align 8, !tbaa !36
  %101 = getelementptr inbounds nuw %struct.sfont_t, ptr %100, i32 0, i32 1
  store i64 %99, ptr %101, align 8, !tbaa !134
  call void @llvm.lifetime.end.p0(i64 8, ptr %10) #13
  call void @llvm.lifetime.end.p0(i64 8, ptr %9) #13
  br label %102

102:                                              ; preds = %98, %60
  %103 = load ptr, ptr %8, align 8, !tbaa !36
  %104 = load ptr, ptr %4, align 8, !tbaa !36
  %105 = getelementptr inbounds nuw %struct.sfont_t, ptr %104, i32 0, i32 0
  store ptr %103, ptr %105, align 8, !tbaa !131
  %106 = load i64, ptr %6, align 8, !tbaa !12
  %107 = load ptr, ptr %4, align 8, !tbaa !36
  %108 = getelementptr inbounds nuw %struct.sfont_t, ptr %107, i32 0, i32 3
  store i64 %106, ptr %108, align 8, !tbaa !135
  store i32 0, ptr %7, align 4
  br label %109

109:                                              ; preds = %102, %45
  call void @llvm.lifetime.end.p0(i64 8, ptr %8) #13
  br label %110

110:                                              ; preds = %109, %35
  call void @llvm.lifetime.end.p0(i64 8, ptr %6) #13
  %111 = load i32, ptr %7, align 4
  switch i32 %111, label %140 [
    i32 0, label %112
    i32 1, label %138
  ]

112:                                              ; preds = %110
  br label %113

113:                                              ; preds = %112, %2
  call void @llvm.lifetime.start.p0(i64 8, ptr %11) #13
  %114 = load ptr, ptr %4, align 8, !tbaa !36
  %115 = getelementptr inbounds nuw %struct.sfont_t, ptr %114, i32 0, i32 1
  %116 = load i64, ptr %115, align 8, !tbaa !134
  %117 = load ptr, ptr %4, align 8, !tbaa !36
  %118 = getelementptr inbounds nuw %struct.sfont_t, ptr %117, i32 0, i32 2
  %119 = load i64, ptr %118, align 8, !tbaa !136
  %120 = add i64 %116, %119
  %121 = load ptr, ptr %4, align 8, !tbaa !36
  %122 = getelementptr inbounds nuw %struct.sfont_t, ptr %121, i32 0, i32 3
  %123 = load i64, ptr %122, align 8, !tbaa !135
  %124 = urem i64 %120, %123
  store i64 %124, ptr %11, align 8, !tbaa !12
  br label %125

125:                                              ; preds = %113
  br label %126

126:                                              ; preds = %125
  br label %127

127:                                              ; preds = %126
  %128 = load ptr, ptr %5, align 8, !tbaa !36
  %129 = load ptr, ptr %4, align 8, !tbaa !36
  %130 = getelementptr inbounds nuw %struct.sfont_t, ptr %129, i32 0, i32 0
  %131 = load ptr, ptr %130, align 8, !tbaa !131
  %132 = load i64, ptr %11, align 8, !tbaa !12
  %133 = getelementptr inbounds nuw ptr, ptr %131, i64 %132
  store ptr %128, ptr %133, align 8, !tbaa !36
  %134 = load ptr, ptr %4, align 8, !tbaa !36
  %135 = getelementptr inbounds nuw %struct.sfont_t, ptr %134, i32 0, i32 2
  %136 = load i64, ptr %135, align 8, !tbaa !136
  %137 = add i64 %136, 1
  store i64 %137, ptr %135, align 8, !tbaa !136
  store i32 0, ptr %3, align 4
  store i32 1, ptr %7, align 4
  call void @llvm.lifetime.end.p0(i64 8, ptr %11) #13
  br label %138

138:                                              ; preds = %127, %110
  %139 = load i32, ptr %3, align 4
  ret i32 %139

140:                                              ; preds = %110
  unreachable
}

; Function Attrs: inlinehint nounwind uwtable
define internal void @sfont_append(ptr noundef %0, ptr noundef %1) #6 {
  %3 = alloca ptr, align 8
  %4 = alloca ptr, align 8
  %5 = alloca i32, align 4
  store ptr %0, ptr %3, align 8, !tbaa !36
  store ptr %1, ptr %4, align 8, !tbaa !36
  call void @llvm.lifetime.start.p0(i64 4, ptr %5) #13
  %6 = load ptr, ptr %3, align 8, !tbaa !36
  %7 = load ptr, ptr %4, align 8, !tbaa !36
  %8 = call i32 @sfont_try_append(ptr noundef %6, ptr noundef %7)
  store i32 %8, ptr %5, align 4, !tbaa !10
  %9 = load i32, ptr %5, align 4, !tbaa !10
  %10 = icmp ne i32 %9, 0
  br i1 %10, label %11, label %16

11:                                               ; preds = %2
  %12 = load ptr, ptr @stderr, align 8, !tbaa !132
  %13 = load i32, ptr %5, align 4, !tbaa !10
  %14 = call ptr @strerror(i32 noundef %13) #13
  %15 = call i32 (ptr, ptr, ...) @fprintf(ptr noundef %12, ptr noundef @.str.11, ptr noundef %14) #13
  call void @graphviz_exit(i32 noundef 1) #15
  unreachable

16:                                               ; preds = %2
  call void @llvm.lifetime.end.p0(i64 4, ptr %5) #13
  ret void
}

; Function Attrs: inlinehint nounwind uwtable
define internal ptr @sfont_at(ptr noundef %0, i64 noundef %1) #6 {
  %3 = alloca ptr, align 8
  %4 = alloca i64, align 8
  store ptr %0, ptr %3, align 8, !tbaa !36
  store i64 %1, ptr %4, align 8, !tbaa !12
  %5 = load ptr, ptr %3, align 8, !tbaa !36
  %6 = getelementptr inbounds nuw %struct.sfont_t, ptr %5, i32 0, i32 0
  %7 = load ptr, ptr %6, align 8, !tbaa !131
  %8 = load ptr, ptr %3, align 8, !tbaa !36
  %9 = getelementptr inbounds nuw %struct.sfont_t, ptr %8, i32 0, i32 1
  %10 = load i64, ptr %9, align 8, !tbaa !134
  %11 = load i64, ptr %4, align 8, !tbaa !12
  %12 = add i64 %10, %11
  %13 = load ptr, ptr %3, align 8, !tbaa !36
  %14 = getelementptr inbounds nuw %struct.sfont_t, ptr %13, i32 0, i32 3
  %15 = load i64, ptr %14, align 8, !tbaa !135
  %16 = urem i64 %12, %15
  %17 = getelementptr inbounds nuw ptr, ptr %7, i64 %16
  ret ptr %17
}

; Function Attrs: inlinehint nounwind uwtable
define internal i64 @sfont_size(ptr noundef %0) #6 {
  %2 = alloca ptr, align 8
  store ptr %0, ptr %2, align 8, !tbaa !36
  %3 = load ptr, ptr %2, align 8, !tbaa !36
  %4 = getelementptr inbounds nuw %struct.sfont_t, ptr %3, i32 0, i32 2
  %5 = load i64, ptr %4, align 8, !tbaa !136
  ret i64 %5
}

; Function Attrs: inlinehint nounwind uwtable
define internal void @sfont_push_back(ptr noundef %0, ptr noundef %1) #6 {
  %3 = alloca ptr, align 8
  %4 = alloca ptr, align 8
  store ptr %0, ptr %3, align 8, !tbaa !36
  store ptr %1, ptr %4, align 8, !tbaa !36
  %5 = load ptr, ptr %3, align 8, !tbaa !36
  %6 = load ptr, ptr %4, align 8, !tbaa !36
  call void @sfont_append(ptr noundef %5, ptr noundef %6)
  ret void
}

; Function Attrs: inlinehint nounwind uwtable
define internal ptr @sfont_back(ptr noundef %0) #6 {
  %2 = alloca ptr, align 8
  store ptr %0, ptr %2, align 8, !tbaa !36
  %3 = load ptr, ptr %2, align 8, !tbaa !36
  %4 = load ptr, ptr %2, align 8, !tbaa !36
  %5 = call i64 @sfont_size(ptr noundef %4)
  %6 = sub i64 %5, 1
  %7 = call ptr @sfont_at(ptr noundef %3, i64 noundef %6)
  ret ptr %7
}

; Function Attrs: nounwind uwtable
define internal void @pushFont(ptr noundef %0, ptr noundef %1) #0 {
  %3 = alloca ptr, align 8
  %4 = alloca ptr, align 8
  %5 = alloca ptr, align 8
  %6 = alloca %struct.textfont_t, align 8
  %7 = alloca ptr, align 8
  store ptr %0, ptr %3, align 8, !tbaa !55
  store ptr %1, ptr %4, align 8, !tbaa !36
  call void @llvm.lifetime.start.p0(i64 8, ptr %5) #13
  %8 = load ptr, ptr %3, align 8, !tbaa !55
  %9 = getelementptr inbounds nuw %struct.htmlparserstate_s, ptr %8, i32 0, i32 5
  %10 = call ptr @sfont_back(ptr noundef %9)
  %11 = load ptr, ptr %10, align 8, !tbaa !36
  store ptr %11, ptr %5, align 8, !tbaa !36
  call void @llvm.lifetime.start.p0(i64 40, ptr %6) #13
  %12 = load ptr, ptr %4, align 8, !tbaa !36
  call void @llvm.memcpy.p0.p0.i64(ptr align 8 %6, ptr align 8 %12, i64 40, i1 false), !tbaa.struct !76
  %13 = load ptr, ptr %5, align 8, !tbaa !36
  %14 = icmp ne ptr %13, null
  br i1 %14, label %15, label %77

15:                                               ; preds = %2
  %16 = getelementptr inbounds nuw %struct.textfont_t, ptr %6, i32 0, i32 1
  %17 = load ptr, ptr %16, align 8, !tbaa !79
  %18 = icmp ne ptr %17, null
  br i1 %18, label %29, label %19

19:                                               ; preds = %15
  %20 = load ptr, ptr %5, align 8, !tbaa !36
  %21 = getelementptr inbounds nuw %struct.textfont_t, ptr %20, i32 0, i32 1
  %22 = load ptr, ptr %21, align 8, !tbaa !79
  %23 = icmp ne ptr %22, null
  br i1 %23, label %24, label %29

24:                                               ; preds = %19
  %25 = load ptr, ptr %5, align 8, !tbaa !36
  %26 = getelementptr inbounds nuw %struct.textfont_t, ptr %25, i32 0, i32 1
  %27 = load ptr, ptr %26, align 8, !tbaa !79
  %28 = getelementptr inbounds nuw %struct.textfont_t, ptr %6, i32 0, i32 1
  store ptr %27, ptr %28, align 8, !tbaa !79
  br label %29

29:                                               ; preds = %24, %19, %15
  %30 = getelementptr inbounds nuw %struct.textfont_t, ptr %6, i32 0, i32 3
  %31 = load double, ptr %30, align 8, !tbaa !81
  %32 = fcmp olt double %31, 0.000000e+00
  br i1 %32, label %33, label %43

33:                                               ; preds = %29
  %34 = load ptr, ptr %5, align 8, !tbaa !36
  %35 = getelementptr inbounds nuw %struct.textfont_t, ptr %34, i32 0, i32 3
  %36 = load double, ptr %35, align 8, !tbaa !81
  %37 = fcmp oge double %36, 0.000000e+00
  br i1 %37, label %38, label %43

38:                                               ; preds = %33
  %39 = load ptr, ptr %5, align 8, !tbaa !36
  %40 = getelementptr inbounds nuw %struct.textfont_t, ptr %39, i32 0, i32 3
  %41 = load double, ptr %40, align 8, !tbaa !81
  %42 = getelementptr inbounds nuw %struct.textfont_t, ptr %6, i32 0, i32 3
  store double %41, ptr %42, align 8, !tbaa !81
  br label %43

43:                                               ; preds = %38, %33, %29
  %44 = getelementptr inbounds nuw %struct.textfont_t, ptr %6, i32 0, i32 0
  %45 = load ptr, ptr %44, align 8, !tbaa !82
  %46 = icmp ne ptr %45, null
  br i1 %46, label %57, label %47

47:                                               ; preds = %43
  %48 = load ptr, ptr %5, align 8, !tbaa !36
  %49 = getelementptr inbounds nuw %struct.textfont_t, ptr %48, i32 0, i32 0
  %50 = load ptr, ptr %49, align 8, !tbaa !82
  %51 = icmp ne ptr %50, null
  br i1 %51, label %52, label %57

52:                                               ; preds = %47
  %53 = load ptr, ptr %5, align 8, !tbaa !36
  %54 = getelementptr inbounds nuw %struct.textfont_t, ptr %53, i32 0, i32 0
  %55 = load ptr, ptr %54, align 8, !tbaa !82
  %56 = getelementptr inbounds nuw %struct.textfont_t, ptr %6, i32 0, i32 0
  store ptr %55, ptr %56, align 8, !tbaa !82
  br label %57

57:                                               ; preds = %52, %47, %43
  %58 = load ptr, ptr %5, align 8, !tbaa !36
  %59 = getelementptr inbounds nuw %struct.textfont_t, ptr %58, i32 0, i32 4
  %60 = load i32, ptr %59, align 8
  %61 = and i32 %60, 127
  %62 = icmp ne i32 %61, 0
  br i1 %62, label %63, label %76

63:                                               ; preds = %57
  %64 = load ptr, ptr %5, align 8, !tbaa !36
  %65 = getelementptr inbounds nuw %struct.textfont_t, ptr %64, i32 0, i32 4
  %66 = load i32, ptr %65, align 8
  %67 = and i32 %66, 127
  %68 = getelementptr inbounds nuw %struct.textfont_t, ptr %6, i32 0, i32 4
  %69 = load i32, ptr %68, align 8
  %70 = and i32 %69, 127
  %71 = or i32 %70, %67
  %72 = load i32, ptr %68, align 8
  %73 = and i32 %71, 127
  %74 = and i32 %72, -128
  %75 = or i32 %74, %73
  store i32 %75, ptr %68, align 8
  br label %76

76:                                               ; preds = %63, %57
  br label %77

77:                                               ; preds = %76, %2
  call void @llvm.lifetime.start.p0(i64 8, ptr %7) #13
  %78 = load ptr, ptr %3, align 8, !tbaa !55
  %79 = getelementptr inbounds nuw %struct.htmlparserstate_s, ptr %78, i32 0, i32 6
  %80 = load ptr, ptr %79, align 8, !tbaa !83
  %81 = getelementptr inbounds nuw %struct.GVC_s, ptr %80, i32 0, i32 12
  %82 = load ptr, ptr %81, align 8, !tbaa !84
  %83 = getelementptr inbounds nuw %struct.dt_s_, ptr %82, i32 0, i32 0
  %84 = load ptr, ptr %83, align 8, !tbaa !101
  %85 = load ptr, ptr %3, align 8, !tbaa !55
  %86 = getelementptr inbounds nuw %struct.htmlparserstate_s, ptr %85, i32 0, i32 6
  %87 = load ptr, ptr %86, align 8, !tbaa !83
  %88 = getelementptr inbounds nuw %struct.GVC_s, ptr %87, i32 0, i32 12
  %89 = load ptr, ptr %88, align 8, !tbaa !84
  %90 = call ptr %84(ptr noundef %89, ptr noundef %6, i32 noundef 1)
  store ptr %90, ptr %7, align 8, !tbaa !36
  %91 = load ptr, ptr %3, align 8, !tbaa !55
  %92 = getelementptr inbounds nuw %struct.htmlparserstate_s, ptr %91, i32 0, i32 5
  %93 = load ptr, ptr %7, align 8, !tbaa !36
  call void @sfont_push_back(ptr noundef %92, ptr noundef %93)
  call void @llvm.lifetime.end.p0(i64 8, ptr %7) #13
  call void @llvm.lifetime.end.p0(i64 40, ptr %6) #13
  call void @llvm.lifetime.end.p0(i64 8, ptr %5) #13
  ret void
}