; Function Attrs: nounwind uwtable
define internal fastcc void @pushFont(ptr noundef captures(none) %0, ptr noundef readonly captures(none) %1) unnamed_addr #0 {
  %3 = alloca %struct.textfont_t, align 8
  %4 = getelementptr inbounds nuw i8, ptr %0, i64 88
  %5 = getelementptr i8, ptr %0, i64 104
  %.val.i = load i64, ptr %5, align 8, !tbaa !29
  %6 = add i64 %.val.i, -1
  %7 = load ptr, ptr %4, align 8, !tbaa !30
  %8 = getelementptr inbounds nuw i8, ptr %0, i64 96
  %9 = load i64, ptr %8, align 8, !tbaa !31
  %10 = add i64 %6, %9
  %11 = getelementptr inbounds nuw i8, ptr %0, i64 112
  %12 = load i64, ptr %11, align 8, !tbaa !32
  %13 = urem i64 %10, %12
  %14 = getelementptr inbounds nuw ptr, ptr %7, i64 %13
  %15 = load ptr, ptr %14, align 8, !tbaa !33
  call void @llvm.lifetime.start.p0(i64 40, ptr nonnull %3) #16
  call void @llvm.memcpy.p0.p0.i64(ptr noundef nonnull align 8 dereferenceable(40) %3, ptr noundef nonnull align 8 dereferenceable(40) %1, i64 40, i1 false), !tbaa.struct !80
  %.not = icmp eq ptr %15, null
  br i1 %.not, label %45, label %16

16:                                               ; preds = %2
  %17 = getelementptr inbounds nuw i8, ptr %3, i64 8
  %18 = load ptr, ptr %17, align 8, !tbaa !83
  %.not19 = icmp eq ptr %18, null
  br i1 %.not19, label %19, label %23

19:                                               ; preds = %16
  %20 = getelementptr inbounds nuw i8, ptr %15, i64 8
  %21 = load ptr, ptr %20, align 8, !tbaa !83
  %.not20 = icmp eq ptr %21, null
  br i1 %.not20, label %23, label %22

22:                                               ; preds = %19
  store ptr %21, ptr %17, align 8, !tbaa !83
  br label %23

23:                                               ; preds = %22, %19, %16
  %24 = getelementptr inbounds nuw i8, ptr %3, i64 24
  %25 = load double, ptr %24, align 8, !tbaa !85
  %26 = fcmp olt double %25, 0.000000e+00
  br i1 %26, label %27, label %32

27:                                               ; preds = %23
  %28 = getelementptr inbounds nuw i8, ptr %15, i64 24
  %29 = load double, ptr %28, align 8, !tbaa !85
  %30 = fcmp ult double %29, 0.000000e+00
  br i1 %30, label %32, label %31

31:                                               ; preds = %27
  store double %29, ptr %24, align 8, !tbaa !85
  br label %32

32:                                               ; preds = %31, %27, %23
  %33 = load ptr, ptr %3, align 8, !tbaa !86
  %.not21 = icmp eq ptr %33, null
  br i1 %.not21, label %34, label %37

34:                                               ; preds = %32
  %35 = load ptr, ptr %15, align 8, !tbaa !86
  %.not22 = icmp eq ptr %35, null
  br i1 %.not22, label %37, label %36

36:                                               ; preds = %34
  store ptr %35, ptr %3, align 8, !tbaa !86
  br label %37

37:                                               ; preds = %36, %34, %32
  %38 = getelementptr inbounds nuw i8, ptr %15, i64 32
  %39 = load i32, ptr %38, align 8
  %40 = and i32 %39, 127
  %.not23 = icmp eq i32 %40, 0
  br i1 %.not23, label %45, label %41

41:                                               ; preds = %37
  %42 = getelementptr inbounds nuw i8, ptr %3, i64 32
  %43 = load i32, ptr %42, align 8
  %44 = or i32 %43, %40
  store i32 %44, ptr %42, align 8
  br label %45

45:                                               ; preds = %37, %41, %2
  %46 = getelementptr inbounds nuw i8, ptr %0, i64 120
  %47 = load ptr, ptr %46, align 8, !tbaa !87
  %48 = getelementptr inbounds nuw i8, ptr %47, i64 256
  %49 = load ptr, ptr %48, align 8, !tbaa !88
  %50 = load ptr, ptr %49, align 8, !tbaa !105
  %51 = call ptr %50(ptr noundef nonnull %49, ptr noundef nonnull %3, i32 noundef 1) #16
  %52 = load i64, ptr %5, align 8, !tbaa !29
  %53 = load i64, ptr %11, align 8, !tbaa !32
  %54 = icmp eq i64 %52, %53
  br i1 %54, label %55, label %._crit_edge.i.i.i

._crit_edge.i.i.i:                                ; preds = %45
  %.pre.i.i.i = load i64, ptr %8, align 8, !tbaa !31
  %.pre46.i.i.i = load ptr, ptr %4, align 8, !tbaa !30
  br label %sfont_push_back.exit

55:                                               ; preds = %45
  %56 = icmp eq i64 %52, 0
  %57 = shl i64 %52, 1
  %spec.select.i.i.i = select i1 %56, i64 1, i64 %57
  %mul.ov.i.i.i = icmp ugt i64 %spec.select.i.i.i, 2305843009213693951
  br i1 %mul.ov.i.i.i, label %80, label %58

58:                                               ; preds = %55
  %59 = load ptr, ptr %4, align 8, !tbaa !30
  %60 = shl nuw i64 %spec.select.i.i.i, 3
  %61 = call ptr @realloc(ptr noundef %59, i64 noundef %60) #21
  %62 = icmp eq ptr %61, null
  br i1 %62, label %80, label %63

63:                                               ; preds = %58
  %64 = load i64, ptr %11, align 8, !tbaa !32
  %65 = getelementptr inbounds nuw ptr, ptr %61, i64 %64
  %66 = sub i64 %spec.select.i.i.i, %64
  %67 = shl i64 %66, 3
  call void @llvm.memset.p0.i64(ptr nonnull align 8 %65, i8 0, i64 %67, i1 false)
  %68 = load i64, ptr %8, align 8, !tbaa !31
  %69 = load i64, ptr %5, align 8, !tbaa !29
  %70 = add i64 %69, %68
  %71 = icmp ugt i64 %70, %64
  br i1 %71, label %72, label %78

72:                                               ; preds = %63
  %73 = sub i64 %64, %68
  %74 = sub i64 %spec.select.i.i.i, %73
  %75 = getelementptr inbounds nuw ptr, ptr %61, i64 %74
  %76 = getelementptr inbounds nuw ptr, ptr %61, i64 %68
  %77 = shl i64 %73, 3
  call void @llvm.memmove.p0.p0.i64(ptr nonnull align 8 %75, ptr nonnull align 8 %76, i64 %77, i1 false)
  store i64 %74, ptr %8, align 8, !tbaa !31
  br label %78

78:                                               ; preds = %72, %63
  %79 = phi i64 [ %68, %63 ], [ %74, %72 ]
  store ptr %61, ptr %4, align 8, !tbaa !30
  store i64 %spec.select.i.i.i, ptr %11, align 8, !tbaa !32
  br label %sfont_push_back.exit

80:                                               ; preds = %58, %55
  %.2.i.ph.i.i = phi i32 [ 34, %55 ], [ 12, %58 ]
  %81 = load ptr, ptr @stderr, align 8, !tbaa !8
  %82 = call ptr @strerror(i32 noundef %.2.i.ph.i.i) #16
  %83 = call i32 (ptr, ptr, ...) @fprintf(ptr noundef %81, ptr noundef nonnull @.str.11, ptr noundef %82) #19
  call fastcc void @graphviz_exit() #20
  unreachable

sfont_push_back.exit:                             ; preds = %._crit_edge.i.i.i, %78
  %84 = phi ptr [ %.pre46.i.i.i, %._crit_edge.i.i.i ], [ %61, %78 ]
  %85 = phi i64 [ %53, %._crit_edge.i.i.i ], [ %spec.select.i.i.i, %78 ]
  %86 = phi i64 [ %52, %._crit_edge.i.i.i ], [ %69, %78 ]
  %87 = phi i64 [ %.pre.i.i.i, %._crit_edge.i.i.i ], [ %79, %78 ]
  %88 = add i64 %87, %86
  %89 = urem i64 %88, %85
  %90 = getelementptr inbounds nuw ptr, ptr %84, i64 %89
  store ptr %51, ptr %90, align 8, !tbaa !33
  %91 = add i64 %86, 1
  store i64 %91, ptr %5, align 8, !tbaa !29
  call void @llvm.lifetime.end.p0(i64 40, ptr nonnull %3) #16
  ret void
}